target datalayout = "e-m:e-p270:32:32-p271:32:32-p272:64:64-i64:64-i128:128-f80:128-n8:16:32:64-S128"
target triple = "x86_64-pc-linux-gnu"

%"class.icu_77::BytesTrie::Iterator" = type { ptr, ptr, ptr, i32, i32, ptr, i32, i32, ptr }

; Function Attrs: mustprogress uwtable
define noundef nonnull align 8 dereferenceable(56) ptr @_ZN6icu_779BytesTrie8Iterator5resetEv(ptr noundef nonnull align 8 dereferenceable(56) %0) #1 align 2 {
  %2 = alloca ptr, align 8
  %3 = alloca i32, align 4
  store ptr %0, ptr %2, align 8, !tbaa !23
  %4 = load ptr, ptr %2, align 8
  %5 = getelementptr inbounds nuw %"class.icu_77::BytesTrie::Iterator", ptr %4, i32 0, i32 2
  %6 = load ptr, ptr %5, align 8, !tbaa !30
  %7 = getelementptr inbounds nuw %"class.icu_77::BytesTrie::Iterator", ptr %4, i32 0, i32 1
  store ptr %6, ptr %7, align 8, !tbaa !29
  %8 = getelementptr inbounds nuw %"class.icu_77::BytesTrie::Iterator", ptr %4, i32 0, i32 4
  %9 = load i32, ptr %8, align 4, !tbaa !32
  %10 = getelementptr inbounds nuw %"class.icu_77::BytesTrie::Iterator", ptr %4, i32 0, i32 3
  store i32 %9, ptr %10, align 8, !tbaa !31
  call void @llvm.lifetime.start.p0(i64 4, ptr %3) #10
  %11 = getelementptr inbounds nuw %"class.icu_77::BytesTrie::Iterator", ptr %4, i32 0, i32 3
  %12 = load i32, ptr %11, align 8, !tbaa !31
  %13 = add nsw i32 %12, 1
  store i32 %13, ptr %3, align 4, !tbaa !14
  %14 = getelementptr inbounds nuw %"class.icu_77::BytesTrie::Iterator", ptr %4, i32 0, i32 6
  %15 = load i32, ptr %14, align 8, !tbaa !34
  %16 = icmp sgt i32 %15, 0
  br i1 %16, label %17, label %25

17:                                               ; preds = %1
  %18 = load i32, ptr %3, align 4, !tbaa !14
  %19 = getelementptr inbounds nuw %"class.icu_77::BytesTrie::Iterator", ptr %4, i32 0, i32 6
  %20 = load i32, ptr %19, align 8, !tbaa !34
  %21 = icmp sgt i32 %18, %20
  br i1 %21, label %22, label %25

22:                                               ; preds = %17
  %23 = getelementptr inbounds nuw %"class.icu_77::BytesTrie::Iterator", ptr %4, i32 0, i32 6
  %24 = load i32, ptr %23, align 8, !tbaa !34
  store i32 %24, ptr %3, align 4, !tbaa !14
  br label %25

25:                                               ; preds = %22, %17, %1
  %26 = getelementptr inbounds nuw %"class.icu_77::BytesTrie::Iterator", ptr %4, i32 0, i32 5
  %27 = load ptr, ptr %26, align 8, !tbaa !33
  %28 = load i32, ptr %3, align 4, !tbaa !14
  %29 = call noundef nonnull align 8 dereferenceable(60) ptr @_ZN6icu_7710CharString8truncateEi(ptr noundef nonnull align 8 dereferenceable(60) %27, i32 noundef %28)
  %30 = load i32, ptr %3, align 4, !tbaa !14
  %31 = getelementptr inbounds nuw %"class.icu_77::BytesTrie::Iterator", ptr %4, i32 0, i32 1
  %32 = load ptr, ptr %31, align 8, !tbaa !29
  %33 = sext i32 %30 to i64
  %34 = getelementptr inbounds i8, ptr %32, i64 %33
  store ptr %34, ptr %31, align 8, !tbaa !29
  %35 = load i32, ptr %3, align 4, !tbaa !14
  %36 = getelementptr inbounds nuw %"class.icu_77::BytesTrie::Iterator", ptr %4, i32 0, i32 3
  %37 = load i32, ptr %36, align 8, !tbaa !31
  %38 = sub nsw i32 %37, %35
  store i32 %38, ptr %36, align 8, !tbaa !31
  %39 = getelementptr inbounds nuw %"class.icu_77::BytesTrie::Iterator", ptr %4, i32 0, i32 8
  %40 = load ptr, ptr %39, align 8, !tbaa !36
  call void @_ZN6icu_779UVector327setSizeEi(ptr noundef nonnull align 8 dereferenceable(32) %40, i32 noundef 0)
  call void @llvm.lifetime.end.p0(i64 4, ptr %3) #10
  ret ptr %4
}