; Function Attrs: mustprogress uwtable
define noundef nonnull align 8 dereferenceable(56) ptr @_ZN6icu_779BytesTrie8Iterator5resetEv(ptr noundef nonnull returned align 8 dereferenceable(56) initializes((8, 16), (24, 28)) %0) local_unnamed_addr #1 align 2 {
  %2 = getelementptr inbounds nuw i8, ptr %0, i64 16
  %3 = load ptr, ptr %2, align 8, !tbaa !20
  %4 = getelementptr inbounds nuw i8, ptr %0, i64 8
  store ptr %3, ptr %4, align 8, !tbaa !19
  %5 = getelementptr inbounds nuw i8, ptr %0, i64 28
  %6 = load i32, ptr %5, align 4, !tbaa !22
  %7 = getelementptr inbounds nuw i8, ptr %0, i64 24
  store i32 %6, ptr %7, align 8, !tbaa !21
  %8 = add nsw i32 %6, 1
  %9 = getelementptr inbounds nuw i8, ptr %0, i64 40
  %10 = load i32, ptr %9, align 8, !tbaa !24
  %11 = icmp slt i32 %10, 1
  %.not = icmp slt i32 %6, %10
  %or.cond = select i1 %11, i1 true, i1 %.not
  %.0 = select i1 %or.cond, i32 %8, i32 %10
  %12 = getelementptr inbounds nuw i8, ptr %0, i64 32
  %13 = load ptr, ptr %12, align 8, !tbaa !23
  %14 = tail call noundef nonnull align 8 dereferenceable(60) ptr @_ZN6icu_7710CharString8truncateEi(ptr noundef nonnull align 8 dereferenceable(60) %13, i32 noundef %.0)
  %15 = load ptr, ptr %4, align 8, !tbaa !19
  %16 = sext i32 %.0 to i64
  %17 = getelementptr inbounds i8, ptr %15, i64 %16
  store ptr %17, ptr %4, align 8, !tbaa !19
  %18 = load i32, ptr %7, align 8, !tbaa !21
  %19 = sub nsw i32 %18, %.0
  store i32 %19, ptr %7, align 8, !tbaa !21
  %20 = getelementptr inbounds nuw i8, ptr %0, i64 48
  %21 = load ptr, ptr %20, align 8, !tbaa !26
  tail call void @_ZN6icu_779UVector327setSizeEi(ptr noundef nonnull align 8 dereferenceable(32) %21, i32 noundef 0)
  ret ptr %0
}